target datalayout = "e-m:e-p270:32:32-p271:32:32-p272:64:64-i64:64-i128:128-f80:128-n8:16:32:64-S128"
target triple = "x86_64-pc-linux-gnu"

%struct.xlist = type { i32, i32, ptr, ptr, ptr, ptr, %union.pthread_rwlock_t, ptr, ptr, [0 x %struct.listNode] }
%union.pthread_rwlock_t = type { %struct.__pthread_rwlock_arch_t }
%struct.__pthread_rwlock_arch_t = type { i32, i32, i32, i32, i32, i32, i32, i32, i8, [7 x i8], i64, i32 }
%struct.listNode = type { ptr, ptr }

@.str.2 = private unnamed_addr constant [32 x i8] c"%s: pthread_rwlock_wrlock(): %m\00", align 1
@.str.3 = private unnamed_addr constant [32 x i8] c"%s: pthread_rwlock_unlock(): %m\00", align 1
@.str.5 = private unnamed_addr constant [32 x i8] c"%s: pthread_rwlock_rdlock(): %m\00", align 1
@__func__._list_find_first_lock = private unnamed_addr constant [22 x i8] c"_list_find_first_lock\00", align 1

; Function Attrs: nounwind uwtable
define internal ptr @_list_find_first_locked(ptr noundef %0, ptr noundef %1, ptr noundef %2) #0 {
  %4 = alloca ptr, align 8
  %5 = alloca ptr, align 8
  %6 = alloca ptr, align 8
  %7 = alloca ptr, align 8
  %8 = alloca ptr, align 8
  %9 = alloca i32, align 4
  store ptr %0, ptr %5, align 8
  store ptr %1, ptr %6, align 8
  store ptr %2, ptr %7, align 8
  call void @llvm.lifetime.start.p0(i64 8, ptr %8) #6
  %10 = load ptr, ptr %5, align 8
  %11 = getelementptr inbounds nuw %struct.xlist, ptr %10, i32 0, i32 2
  %12 = load ptr, ptr %11, align 8
  store ptr %12, ptr %8, align 8
  br label %13

13:                                               ; preds = %30, %3
  %14 = load ptr, ptr %8, align 8
  %15 = icmp ne ptr %14, null
  br i1 %15, label %17, label %16

16:                                               ; preds = %13
  store i32 2, ptr %9, align 4
  br label %34

17:                                               ; preds = %13
  %18 = load ptr, ptr %6, align 8
  %19 = load ptr, ptr %8, align 8
  %20 = getelementptr inbounds nuw %struct.listNode, ptr %19, i32 0, i32 0
  %21 = load ptr, ptr %20, align 8
  %22 = load ptr, ptr %7, align 8
  %23 = call i32 %18(ptr noundef %21, ptr noundef %22)
  %24 = icmp ne i32 %23, 0
  br i1 %24, label %25, label %29

25:                                               ; preds = %17
  %26 = load ptr, ptr %8, align 8
  %27 = getelementptr inbounds nuw %struct.listNode, ptr %26, i32 0, i32 0
  %28 = load ptr, ptr %27, align 8
  store ptr %28, ptr %4, align 8
  store i32 1, ptr %9, align 4
  br label %34

29:                                               ; preds = %17
  br label %30

30:                                               ; preds = %29
  %31 = load ptr, ptr %8, align 8
  %32 = getelementptr inbounds nuw %struct.listNode, ptr %31, i32 0, i32 1
  %33 = load ptr, ptr %32, align 8
  store ptr %33, ptr %8, align 8
  br label %13, !llvm.loop !36

34:                                               ; preds = %25, %16
  call void @llvm.lifetime.end.p0(i64 8, ptr %8) #6
  %35 = load i32, ptr %9, align 4
  switch i32 %35, label %39 [
    i32 2, label %36
    i32 1, label %37
  ]

36:                                               ; preds = %34
  store ptr null, ptr %4, align 8
  br label %37

37:                                               ; preds = %36, %34
  %38 = load ptr, ptr %4, align 8
  ret ptr %38

39:                                               ; preds = %34
  unreachable
}

; Function Attrs: nounwind uwtable
define internal ptr @_list_find_first_lock(ptr noundef %0, ptr noundef %1, ptr noundef %2, i1 noundef zeroext %3) #0 {
  %5 = alloca ptr, align 8
  %6 = alloca ptr, align 8
  %7 = alloca ptr, align 8
  %8 = alloca i8, align 1
  %9 = alloca ptr, align 8
  %10 = alloca i32, align 4
  %11 = alloca i32, align 4
  %12 = alloca i32, align 4
  store ptr %0, ptr %5, align 8
  store ptr %1, ptr %6, align 8
  store ptr %2, ptr %7, align 8
  %13 = zext i1 %3 to i8
  store i8 %13, ptr %8, align 1
  call void @llvm.lifetime.start.p0(i64 8, ptr %9) #6
  store ptr null, ptr %9, align 8
  %14 = load i8, ptr %8, align 1, !range !21, !noundef !22
  %15 = trunc i8 %14 to i1
  br i1 %15, label %16, label %29

16:                                               ; preds = %4
  br label %17

17:                                               ; preds = %16
  call void @llvm.lifetime.start.p0(i64 4, ptr %10) #6
  %18 = load ptr, ptr %5, align 8
  %19 = getelementptr inbounds nuw %struct.xlist, ptr %18, i32 0, i32 6
  %20 = call i32 @pthread_rwlock_wrlock(ptr noundef %19) #6
  store i32 %20, ptr %10, align 4
  %21 = load i32, ptr %10, align 4
  %22 = icmp ne i32 %21, 0
  br i1 %22, label %23, label %26

23:                                               ; preds = %17
  %24 = load i32, ptr %10, align 4
  %25 = call ptr @__errno_location() #7
  store i32 %24, ptr %25, align 4
  call void (ptr, ...) @fatal_abort(ptr noundef @.str.2, ptr noundef @__func__._list_find_first_lock) #8
  unreachable

26:                                               ; preds = %17
  call void @llvm.lifetime.end.p0(i64 4, ptr %10) #6
  br label %27

27:                                               ; preds = %26
  br label %28

28:                                               ; preds = %27
  br label %42

29:                                               ; preds = %4
  br label %30

30:                                               ; preds = %29
  call void @llvm.lifetime.start.p0(i64 4, ptr %11) #6
  %31 = load ptr, ptr %5, align 8
  %32 = getelementptr inbounds nuw %struct.xlist, ptr %31, i32 0, i32 6
  %33 = call i32 @pthread_rwlock_rdlock(ptr noundef %32) #6
  store i32 %33, ptr %11, align 4
  %34 = load i32, ptr %11, align 4
  %35 = icmp ne i32 %34, 0
  br i1 %35, label %36, label %39

36:                                               ; preds = %30
  %37 = load i32, ptr %11, align 4
  %38 = call ptr @__errno_location() #7
  store i32 %37, ptr %38, align 4
  call void (ptr, ...) @fatal_abort(ptr noundef @.str.5, ptr noundef @__func__._list_find_first_lock) #8
  unreachable

39:                                               ; preds = %30
  call void @llvm.lifetime.end.p0(i64 4, ptr %11) #6
  br label %40

40:                                               ; preds = %39
  br label %41

41:                                               ; preds = %40
  br label %42

42:                                               ; preds = %41, %28
  %43 = load ptr, ptr %5, align 8
  %44 = load ptr, ptr %6, align 8
  %45 = load ptr, ptr %7, align 8
  %46 = call ptr @_list_find_first_locked(ptr noundef %43, ptr noundef %44, ptr noundef %45)
  store ptr %46, ptr %9, align 8
  br label %47

47:                                               ; preds = %42
  call void @llvm.lifetime.start.p0(i64 4, ptr %12) #6
  %48 = load ptr, ptr %5, align 8
  %49 = getelementptr inbounds nuw %struct.xlist, ptr %48, i32 0, i32 6
  %50 = call i32 @pthread_rwlock_unlock(ptr noundef %49) #6
  store i32 %50, ptr %12, align 4
  %51 = load i32, ptr %12, align 4
  %52 = icmp ne i32 %51, 0
  br i1 %52, label %53, label %56

53:                                               ; preds = %47
  %54 = load i32, ptr %12, align 4
  %55 = call ptr @__errno_location() #7
  store i32 %54, ptr %55, align 4
  call void (ptr, ...) @fatal_abort(ptr noundef @.str.3, ptr noundef @__func__._list_find_first_lock) #8
  unreachable

56:                                               ; preds = %47
  call void @llvm.lifetime.end.p0(i64 4, ptr %12) #6
  br label %57

57:                                               ; preds = %56
  br label %58

58:                                               ; preds = %57
  %59 = load ptr, ptr %9, align 8
  call void @llvm.lifetime.end.p0(i64 8, ptr %9) #6
  ret ptr %59
}

; Function Attrs: nounwind uwtable
define dso_local ptr @list_find_first_ro(ptr noundef %0, ptr noundef %1, ptr noundef %2) #0 {
  %4 = alloca ptr, align 8
  %5 = alloca ptr, align 8
  %6 = alloca ptr, align 8
  store ptr %0, ptr %4, align 8
  store ptr %1, ptr %5, align 8
  store ptr %2, ptr %6, align 8
  %7 = load ptr, ptr %4, align 8
  %8 = load ptr, ptr %5, align 8
  %9 = load ptr, ptr %6, align 8
  %10 = call ptr @_list_find_first_lock(ptr noundef %7, ptr noundef %8, ptr noundef %9, i1 noundef zeroext false)
  ret ptr %10
}